target datalayout = "e-m:e-p270:32:32-p271:32:32-p272:64:64-i64:64-i128:128-f80:128-n8:16:32:64-S128"
target triple = "x86_64-pc-linux-gnu"

%struct.reassembly_table = type { ptr, ptr, ptr, ptr, ptr }
%struct.reassembly_table_functions = type { ptr, ptr, ptr, ptr, ptr, ptr }

@.str.486 = private unnamed_addr constant [33 x i8] c"Network Data Management Protocol\00", align 1
@.str.487 = private unnamed_addr constant [5 x i8] c"NDMP\00", align 1
@.str.488 = private unnamed_addr constant [5 x i8] c"ndmp\00", align 1
@proto_ndmp = internal global i32 0, align 4
@ndmp_handle = internal global ptr null, align 8
@.str.489 = private unnamed_addr constant [17 x i8] c"protocol_version\00", align 1
@.str.490 = private unnamed_addr constant [25 x i8] c"default_protocol_version\00", align 1
@.str.491 = private unnamed_addr constant [25 x i8] c"Default protocol version\00", align 1
@.str.492 = private unnamed_addr constant [105 x i8] c"Version of the NDMP protocol to assume if the version can not be automatically detected from the capture\00", align 1
@ndmp_default_protocol_version = internal global i32 4, align 4
@.str.493 = private unnamed_addr constant [10 x i8] c"desegment\00", align 1
@.str.494 = private unnamed_addr constant [56 x i8] c"Reassemble NDMP messages spanning multiple TCP segments\00", align 1
@.str.495 = private unnamed_addr constant [205 x i8] c"Whether the NDMP dissector should reassemble messages spanning multiple TCP segments. To use this option, you must also enable \22Allow subdissectors to reassemble TCP streams\22 in the TCP protocol settings.\00", align 1
@ndmp_desegment = internal global i8 1, align 1
@.str.496 = private unnamed_addr constant [11 x i8] c"defragment\00", align 1
@.str.497 = private unnamed_addr constant [62 x i8] c"Reassemble fragmented NDMP messages spanning multiple packets\00", align 1
@.str.498 = private unnamed_addr constant [81 x i8] c"Whether the dissector should defragment NDMP messages spanning multiple packets.\00", align 1
@ndmp_defragment = internal global i8 1, align 1
@ndmp_reassembly_table = internal global %struct.reassembly_table zeroinitializer, align 8
@addresses_reassembly_table_functions = external constant %struct.reassembly_table_functions, align 8

; Function Attrs: null_pointer_is_valid sspstrong uwtable
define hidden void @proto_register_ndmp() #0 {
  %1 = alloca ptr, align 8
  %2 = alloca ptr, align 8
  call void @llvm.lifetime.start.p0(i64 8, ptr %1) #9
  call void @llvm.lifetime.start.p0(i64 8, ptr %2) #9
  %3 = call i32 @proto_register_protocol(ptr noundef @.str.486, ptr noundef @.str.487, ptr noundef @.str.488)
  store i32 %3, ptr @proto_ndmp, align 4
  %4 = load i32, ptr @proto_ndmp, align 4
  call void @proto_register_field_array(i32 noundef %4, ptr noundef @proto_register_ndmp.hf_ndmp, i32 noundef 193)
  call void @proto_register_subtree_array(ptr noundef @proto_register_ndmp.ett, i32 noundef 20)
  %5 = load i32, ptr @proto_ndmp, align 4
  %6 = call ptr @expert_register_protocol(i32 noundef %5)
  store ptr %6, ptr %2, align 8
  %7 = load ptr, ptr %2, align 8
  call void @expert_register_field_array(ptr noundef %7, ptr noundef @proto_register_ndmp.ei, i32 noundef 1)
  %8 = load i32, ptr @proto_ndmp, align 4
  %9 = call ptr @register_dissector(ptr noundef @.str.488, ptr noundef @dissect_ndmp, i32 noundef %8)
  store ptr %9, ptr @ndmp_handle, align 8
  %10 = load i32, ptr @proto_ndmp, align 4
  %11 = call ptr @prefs_register_protocol(i32 noundef %10, ptr noundef null)
  store ptr %11, ptr %1, align 8
  %12 = load ptr, ptr %1, align 8
  call void @prefs_register_obsolete_preference(ptr noundef %12, ptr noundef @.str.489)
  %13 = load ptr, ptr %1, align 8
  call void @prefs_register_enum_preference(ptr noundef %13, ptr noundef @.str.490, ptr noundef @.str.491, ptr noundef @.str.492, ptr noundef @ndmp_default_protocol_version, ptr noundef @ndmp_protocol_versions, i1 noundef zeroext false)
  %14 = load ptr, ptr %1, align 8
  call void @prefs_register_bool_preference(ptr noundef %14, ptr noundef @.str.493, ptr noundef @.str.494, ptr noundef @.str.495, ptr noundef @ndmp_desegment)
  %15 = load ptr, ptr %1, align 8
  call void @prefs_register_bool_preference(ptr noundef %15, ptr noundef @.str.496, ptr noundef @.str.497, ptr noundef @.str.498, ptr noundef @ndmp_defragment)
  call void @reassembly_table_register(ptr noundef @ndmp_reassembly_table, ptr noundef @addresses_reassembly_table_functions)
  call void @llvm.lifetime.end.p0(i64 8, ptr %2) #9
  call void @llvm.lifetime.end.p0(i64 8, ptr %1) #9
  ret void
}