; Function Attrs: null_pointer_is_valid sspstrong uwtable
define hidden void @proto_register_ndmp() local_unnamed_addr #0 {
  %1 = tail call i32 @proto_register_protocol(ptr noundef nonnull @.str.486, ptr noundef nonnull @.str.487, ptr noundef nonnull @.str.488)
  store i32 %1, ptr @proto_ndmp, align 4
  tail call void @proto_register_field_array(i32 noundef %1, ptr noundef nonnull @proto_register_ndmp.hf_ndmp, i32 noundef 193)
  tail call void @proto_register_subtree_array(ptr noundef nonnull @proto_register_ndmp.ett, i32 noundef 20)
  %2 = load i32, ptr @proto_ndmp, align 4
  %3 = tail call ptr @expert_register_protocol(i32 noundef %2)
  tail call void @expert_register_field_array(ptr noundef %3, ptr noundef nonnull @proto_register_ndmp.ei, i32 noundef 1)
  %4 = load i32, ptr @proto_ndmp, align 4
  %5 = tail call ptr @register_dissector(ptr noundef nonnull @.str.488, ptr noundef nonnull @dissect_ndmp, i32 noundef %4)
  store ptr %5, ptr @ndmp_handle, align 8
  %6 = load i32, ptr @proto_ndmp, align 4
  %7 = tail call ptr @prefs_register_protocol(i32 noundef %6, ptr noundef null)
  tail call void @prefs_register_obsolete_preference(ptr noundef %7, ptr noundef nonnull @.str.489)
  tail call void @prefs_register_enum_preference(ptr noundef %7, ptr noundef nonnull @.str.490, ptr noundef nonnull @.str.491, ptr noundef nonnull @.str.492, ptr noundef nonnull @ndmp_default_protocol_version, ptr noundef nonnull @ndmp_protocol_versions, i1 noundef zeroext false)
  tail call void @prefs_register_bool_preference(ptr noundef %7, ptr noundef nonnull @.str.493, ptr noundef nonnull @.str.494, ptr noundef nonnull @.str.495, ptr noundef nonnull @ndmp_desegment)
  tail call void @prefs_register_bool_preference(ptr noundef %7, ptr noundef nonnull @.str.496, ptr noundef nonnull @.str.497, ptr noundef nonnull @.str.498, ptr noundef nonnull @ndmp_defragment)
  tail call void @reassembly_table_register(ptr noundef nonnull @ndmp_reassembly_table, ptr noundef nonnull @addresses_reassembly_table_functions)
  ret void
}